target datalayout = "e-m:e-p270:32:32-p271:32:32-p272:64:64-i64:64-i128:128-f80:128-n8:16:32:64-S128"
target triple = "x86_64-pc-linux-gnu"

%class.btClock = type { ptr }
%struct.btClockData = type { %struct.timeval }
%struct.timeval = type { i64, i64 }

; Function Attrs: mustprogress nounwind uwtable
define dso_local noundef i64 @_ZN7btClock19getTimeMillisecondsEv(ptr noundef nonnull align 8 dereferenceable(8) %0) #1 align 2 {
  %2 = alloca ptr, align 8
  %3 = alloca %struct.timeval, align 8
  store ptr %0, ptr %2, align 8, !tbaa !12
  %4 = load ptr, ptr %2, align 8
  call void @llvm.lifetime.start.p0(i64 16, ptr %3) #11
  %5 = call i32 @gettimeofday(ptr noundef %3, ptr noundef null) #11
  %6 = getelementptr inbounds nuw %struct.timeval, ptr %3, i32 0, i32 0
  %7 = load i64, ptr %6, align 8, !tbaa !20
  %8 = getelementptr inbounds nuw %class.btClock, ptr %4, i32 0, i32 0
  %9 = load ptr, ptr %8, align 8, !tbaa !14
  %10 = getelementptr inbounds nuw %struct.btClockData, ptr %9, i32 0, i32 0
  %11 = getelementptr inbounds nuw %struct.timeval, ptr %10, i32 0, i32 0
  %12 = load i64, ptr %11, align 8, !tbaa !22
  %13 = sub nsw i64 %7, %12
  %14 = mul nsw i64 %13, 1000
  %15 = getelementptr inbounds nuw %struct.timeval, ptr %3, i32 0, i32 1
  %16 = load i64, ptr %15, align 8, !tbaa !24
  %17 = getelementptr inbounds nuw %class.btClock, ptr %4, i32 0, i32 0
  %18 = load ptr, ptr %17, align 8, !tbaa !14
  %19 = getelementptr inbounds nuw %struct.btClockData, ptr %18, i32 0, i32 0
  %20 = getelementptr inbounds nuw %struct.timeval, ptr %19, i32 0, i32 1
  %21 = load i64, ptr %20, align 8, !tbaa !25
  %22 = sub nsw i64 %16, %21
  %23 = sdiv i64 %22, 1000
  %24 = add nsw i64 %14, %23
  call void @llvm.lifetime.end.p0(i64 16, ptr %3) #11
  ret i64 %24
}