; Function Attrs: mustprogress nofree nounwind uwtable
define dso_local noundef i64 @_ZN7btClock19getTimeMillisecondsEv(ptr noundef nonnull readonly align 8 captures(none) dereferenceable(8) %0) local_unnamed_addr #2 align 2 {
  %2 = alloca %struct.timeval, align 8
  call void @llvm.lifetime.start.p0(i64 16, ptr nonnull %2) #17
  %3 = call i32 @gettimeofday(ptr noundef nonnull %2, ptr noundef null) #17
  %4 = load i64, ptr %2, align 8, !tbaa !13
  %5 = load ptr, ptr %0, align 8, !tbaa !4
  %6 = load i64, ptr %5, align 8, !tbaa !15
  %7 = sub nsw i64 %4, %6
  %8 = mul nsw i64 %7, 1000
  %9 = getelementptr inbounds nuw i8, ptr %2, i64 8
  %10 = load i64, ptr %9, align 8, !tbaa !17
  %11 = getelementptr inbounds nuw i8, ptr %5, i64 8
  %12 = load i64, ptr %11, align 8, !tbaa !18
  %13 = sub nsw i64 %10, %12
  %14 = sdiv i64 %13, 1000
  %15 = add nsw i64 %14, %8
  call void @llvm.lifetime.end.p0(i64 16, ptr nonnull %2) #17
  ret i64 %15
}